Certificate:
    Data:
        Version: 3 (0x2)
        Serial Number: 1 (0x1)
    Signature Algorithm: sha1WithRSAEncryption
        Issuer: C=DE, ST=none, L=Berlin, O=OpenVAS Users United, OU=Certification Authority for livecd-ng, CN=livecd-ng/emailAddress=ca@livecd-ng
        Validity
            Not Before: Dec  3 10:25:38 2013 GMT
            Not After : Dec  3 10:25:38 2014 GMT
        Subject: C=DE, L=Berlin, CN=om
        Subject Public Key Info:
            Public Key Algorithm: rsaEncryption
                Public-Key: (1024 bit)
                Modulus:
                    00:aa:26:21:5b:c5:02:7c:d9:23:ff:d0:5f:88:1f:
                    5e:13:b5:18:0a:74:02:49:2f:d9:9c:10:ae:bc:04:
                    e1:9d:a3:7d:e6:6e:55:71:0d:a9:30:37:c8:ac:5c:
                    cd:52:0a:19:b5:84:54:03:26:6e:23:14:2c:7a:d3:
                    d1:45:25:1a:a1:5d:34:f0:1e:64:bc:dd:98:b0:60:
                    29:e4:88:9f:ed:4b:37:cd:8d:18:37:b5:97:e8:93:
                    c7:12:e0:af:49:bf:31:7e:51:10:44:a7:a1:53:08:
                    f1:09:d2:29:6f:7d:74:93:2f:5d:b4:d6:0d:3b:4a:
                    06:f5:35:97:bc:54:71:3c:8f
                Exponent: 65537 (0x10001)
        X509v3 extensions:
            Netscape Cert Type: 
                SSL Client
            X509v3 Key Usage: 
                Digital Signature, Non Repudiation, Key Encipherment
            Netscape Comment: 
                OpenSSL Generated Certificate
            X509v3 Subject Key Identifier: 
                34:00:D9:11:DD:0F:CD:C3:B3:17:3D:E5:EF:88:37:96:A8:FC:E2:79
            X509v3 Authority Key Identifier: 
                keyid:6E:48:FF:83:86:3C:2F:6A:27:72:40:E4:F7:7B:03:8F:D6:75:40:93
                DirName:/C=DE/ST=none/L=Berlin/O=OpenVAS Users United/OU=Certification Authority for livecd-ng/CN=livecd-ng/emailAddress=ca@livecd-ng
                serial:C4:5C:08:29:D6:E1:89:C7

            X509v3 Subject Alternative Name: 
                <EMPTY>

            X509v3 Issuer Alternative Name: 
                <EMPTY>

    Signature Algorithm: sha1WithRSAEncryption
         19:f4:cd:b2:f6:f9:74:d3:2f:06:ce:cf:34:09:36:14:c7:c7:
         17:37:ee:b4:77:9c:55:c6:1c:f7:54:14:d0:b4:eb:22:ae:61:
         65:2d:f2:af:c6:b2:9b:ea:6c:e7:a5:17:ee:c1:3b:01:65:27:
         f1:08:80:f1:28:0a:85:e2:61:7d:5b:af:ee:ba:77:b4:c3:59:
         5a:96:21:c2:f4:99:da:12:36:9e:27:1c:d0:ca:83:d8:8f:50:
         33:5c:5e:66:8d:ec:b3:0b:79:c6:07:bc:1f:6d:0e:31:62:48:
         d7:26:fd:7f:f0:44:d4:6f:13:e2:b8:d2:74:ee:74:f4:07:b9:
         6b:ba
-----BEGIN CERTIFICATE-----
MIIDvTCCAyagAwIBAgIBATANBgkqhkiG9w0BAQUFADCBrTELMAkGA1UEBhMCREUx
DTALBgNVBAgTBG5vbmUxDzANBgNVBAcTBkJlcmxpbjEdMBsGA1UEChMUT3BlblZB
UyBVc2VycyBVbml0ZWQxLjAsBgNVBAsTJUNlcnRpZmljYXRpb24gQXV0aG9yaXR5
IGZvciBsaXZlY2QtbmcxEjAQBgNVBAMTCWxpdmVjZC1uZzEbMBkGCSqGSIb3DQEJ
ARYMY2FAbGl2ZWNkLW5nMB4XDTEzMTIwMzEwMjUzOFoXDTE0MTIwMzEwMjUzOFow
KzELMAkGA1UEBhMCREUxDzANBgNVBAcTBkJlcmxpbjELMAkGA1UEAxMCb20wgZ8w
DQYJKoZIhvcNAQEBBQADgY0AMIGJAoGBAKomIVvFAnzZI//QX4gfXhO1GAp0Akkv
2ZwQrrwE4Z2jfeZuVXENqTA3yKxczVIKGbWEVAMmbiMULHrT0UUlGqFdNPAeZLzd
mLBgKeSIn+1LN82NGDe1l+iTxxLgr0m/MX5REESnoVMI8QnSKW99dJMvXbTWDTtK
BvU1l7xUcTyPAgMBAAGjggFsMIIBaDARBglghkgBhvhCAQEEBAMCB4AwCwYDVR0P
BAQDAgXgMCwGCWCGSAGG+EIBDQQfFh1PcGVuU1NMIEdlbmVyYXRlZCBDZXJ0aWZp
Y2F0ZTAdBgNVHQ4EFgQUNADZEd0PzcOzFz3l74g3lqj84nkwgeIGA1UdIwSB2jCB
14AUbkj/g4Y8L2onckDk93sDj9Z1QJOhgbOkgbAwga0xCzAJBgNVBAYTAkRFMQ0w
CwYDVQQIEwRub25lMQ8wDQYDVQQHEwZCZXJsaW4xHTAbBgNVBAoTFE9wZW5WQVMg
VXNlcnMgVW5pdGVkMS4wLAYDVQQLEyVDZXJ0aWZpY2F0aW9uIEF1dGhvcml0eSBm
b3IgbGl2ZWNkLW5nMRIwEAYDVQQDEwlsaXZlY2QtbmcxGzAZBgkqhkiG9w0BCQEW
DGNhQGxpdmVjZC1uZ4IJAMRcCCnW4YnHMAkGA1UdEQQCMAAwCQYDVR0SBAIwADAN
BgkqhkiG9w0BAQUFAAOBgQAZ9M2y9vl00y8Gzs80CTYUx8cXN+60d5xVxhz3VBTQ
tOsirmFlLfKvxrKb6mznpRfuwTsBZSfxCIDxKAqF4mF9W6/uune0w1laliHC9Jna
EjaeJxzQyoPYj1AzXF5mjeyzC3nGB7wfbQ4xYkjXJv1/8ETUbxPiuNJ07nT0B7lr
ug==
-----END CERTIFICATE-----
