Certificate:
    Data:
        Version: 3 (0x2)
        Serial Number: 1 (0x1)
    Signature Algorithm: sha1WithRSAEncryption
        Issuer: C=DE, ST=none, L=Berlin, O=OpenVAS Users United, OU=Certification Authority for livecd-ng, CN=livecd-ng/emailAddress=ca@livecd-ng
        Validity
            Not Before: Dec  3 10:24:51 2013 GMT
            Not After : Dec  3 10:24:51 2014 GMT
        Subject: C=DE, ST=none, L=Berlin, O=OpenVAS Users United, OU=Server certificate for livecd-ng, CN=livecd-ng/emailAddress=openvassd@livecd-ng
        Subject Public Key Info:
            Public Key Algorithm: rsaEncryption
                Public-Key: (1024 bit)
                Modulus:
                    00:b9:04:89:8f:5a:f1:4f:aa:fd:87:9d:ba:ba:f8:
                    3c:9b:ef:16:15:3e:50:d7:dd:69:91:9d:67:39:f9:
                    00:d2:d2:09:56:fb:b0:c9:a7:94:3c:40:17:d8:19:
                    75:8b:3b:a1:f0:71:e7:1d:d1:a8:87:0e:aa:8f:9e:
                    c2:a1:88:a0:37:05:ef:ce:58:5a:1d:4d:8a:a5:3c:
                    5d:bc:52:68:e2:0a:53:64:9b:4a:1c:fd:f4:50:7f:
                    52:ad:00:4c:dd:d7:4b:65:51:a6:6f:63:f9:45:c0:
                    c9:c3:70:c3:cc:df:3b:1c:74:c7:64:74:d5:82:fc:
                    a3:e8:43:a9:29:9b:10:3e:6d
                Exponent: 65537 (0x10001)
        X509v3 extensions:
            Netscape Cert Type: 
                SSL Server
            X509v3 Key Usage: 
                Digital Signature, Non Repudiation, Key Encipherment
            Netscape Comment: 
                OpenSSL Generated Certificate
            X509v3 Subject Key Identifier: 
                7F:56:6C:CB:C2:0A:C9:0A:2C:94:5C:2D:D1:ED:A7:9D:C5:59:D7:A1
            X509v3 Authority Key Identifier: 
                keyid:6E:48:FF:83:86:3C:2F:6A:27:72:40:E4:F7:7B:03:8F:D6:75:40:93
                DirName:/C=DE/ST=none/L=Berlin/O=OpenVAS Users United/OU=Certification Authority for livecd-ng/CN=livecd-ng/emailAddress=ca@livecd-ng
                serial:C4:5C:08:29:D6:E1:89:C7

            X509v3 Subject Alternative Name: 
                email:openvassd@livecd-ng
            X509v3 Issuer Alternative Name: 
                <EMPTY>

    Signature Algorithm: sha1WithRSAEncryption
         09:57:d8:34:d6:12:76:a5:ea:02:8d:12:25:df:e8:a0:54:6f:
         33:df:14:8a:98:28:b6:6a:ba:1a:31:fb:5a:af:91:d2:d8:db:
         cd:8c:2a:36:a0:10:33:65:c1:08:13:85:a7:70:4a:73:11:d6:
         03:d3:ca:ff:ca:0e:37:78:6b:0f:0f:fb:c5:e1:98:67:81:d1:
         f1:2b:b3:fb:4a:0a:f7:25:b7:4f:33:df:a5:ab:da:7b:a7:95:
         d2:e2:a4:2b:81:92:93:e5:63:e9:ed:dc:0b:57:e9:4e:e9:1a:
         d3:6b:93:74:99:5a:33:d8:73:5e:ef:30:7a:6d:70:5f:cb:c0:
         7f:9c
-----BEGIN CERTIFICATE-----
MIIEVzCCA8CgAwIBAgIBATANBgkqhkiG9w0BAQUFADCBrTELMAkGA1UEBhMCREUx
DTALBgNVBAgTBG5vbmUxDzANBgNVBAcTBkJlcmxpbjEdMBsGA1UEChMUT3BlblZB
UyBVc2VycyBVbml0ZWQxLjAsBgNVBAsTJUNlcnRpZmljYXRpb24gQXV0aG9yaXR5
IGZvciBsaXZlY2QtbmcxEjAQBgNVBAMTCWxpdmVjZC1uZzEbMBkGCSqGSIb3DQEJ
ARYMY2FAbGl2ZWNkLW5nMB4XDTEzMTIwMzEwMjQ1MVoXDTE0MTIwMzEwMjQ1MVow
ga8xCzAJBgNVBAYTAkRFMQ0wCwYDVQQIEwRub25lMQ8wDQYDVQQHEwZCZXJsaW4x
HTAbBgNVBAoTFE9wZW5WQVMgVXNlcnMgVW5pdGVkMSkwJwYDVQQLEyBTZXJ2ZXIg
Y2VydGlmaWNhdGUgZm9yIGxpdmVjZC1uZzESMBAGA1UEAxMJbGl2ZWNkLW5nMSIw
IAYJKoZIhvcNAQkBFhNvcGVudmFzc2RAbGl2ZWNkLW5nMIGfMA0GCSqGSIb3DQEB
AQUAA4GNADCBiQKBgQC5BImPWvFPqv2Hnbq6+Dyb7xYVPlDX3WmRnWc5+QDS0glW
+7DJp5Q8QBfYGXWLO6Hwcecd0aiHDqqPnsKhiKA3Be/OWFodTYqlPF28UmjiClNk
m0oc/fRQf1KtAEzd10tlUaZvY/lFwMnDcMPM3zscdMdkdNWC/KPoQ6kpmxA+bQID
AQABo4IBgTCCAX0wEQYJYIZIAYb4QgEBBAQDAgZAMAsGA1UdDwQEAwIF4DAsBglg
hkgBhvhCAQ0EHxYdT3BlblNTTCBHZW5lcmF0ZWQgQ2VydGlmaWNhdGUwHQYDVR0O
BBYEFH9WbMvCCskKLJRcLdHtp53FWdehMIHiBgNVHSMEgdowgdeAFG5I/4OGPC9q
J3JA5Pd7A4/WdUCToYGzpIGwMIGtMQswCQYDVQQGEwJERTENMAsGA1UECBMEbm9u
ZTEPMA0GA1UEBxMGQmVybGluMR0wGwYDVQQKExRPcGVuVkFTIFVzZXJzIFVuaXRl
ZDEuMCwGA1UECxMlQ2VydGlmaWNhdGlvbiBBdXRob3JpdHkgZm9yIGxpdmVjZC1u
ZzESMBAGA1UEAxMJbGl2ZWNkLW5nMRswGQYJKoZIhvcNAQkBFgxjYUBsaXZlY2Qt
bmeCCQDEXAgp1uGJxzAeBgNVHREEFzAVgRNvcGVudmFzc2RAbGl2ZWNkLW5nMAkG
A1UdEgQCMAAwDQYJKoZIhvcNAQEFBQADgYEACVfYNNYSdqXqAo0SJd/ooFRvM98U
ipgotmq6GjH7Wq+R0tjbzYwqNqAQM2XBCBOFp3BKcxHWA9PK/8oON3hrDw/7xeGY
Z4HR8Suz+0oK9yW3TzPfpavae6eV0uKkK4GSk+Vj6e3cC1fpTuka02uTdJlaM9hz
Xu8wem1wX8vAf5w=
-----END CERTIFICATE-----
